ccopy_reg
_reconstructor
p0
(cFWCore.ParameterSet.Config
Process
p1
c__builtin__
object
p2
Ntp3
Rp4
(dp5
V_Process__name
p6
VAnalysis
p7
sV_Process__filters
p8
(dp9
sV_Process__producers
p10
(dp11
sV_Process__switchproducers
p12
(dp13
sV_Process__source
p14
g0
(cFWCore.ParameterSet.Modules
Source
p15
g2
Ntp16
Rp17
(dp18
V_TypedParameterizable__type
p19
VEmptySource
p20
sV_Parameterizable__parameterNames
p21
(lp22
sV_isFrozen
p23
I00
sV_Parameterizable__validator
p24
NsV_isModified
p25
I00
sV_filename
p26
V/cvmfs/cms.cern.ch/el9_amd64_gcc12/cms/cmssw/CMSSW_13_3_0/src/FWCore/ParameterSet/python/Modules.py
p27
sV_lineNumber
p28
I195
sbsV_Process__looper
p29
NsV_Process__subProcesses
p30
(lp31
sV_Process__schedule
p32
NsV_Process__analyzers
p33
(dp34
sV_Process__outputmodules
p35
(dp36
sV_Process__paths
p37
g0
(cFWCore.ParameterSet.DictTypes
SortedKeysDict
p38
c__builtin__
dict
p39
(dp40
tp41
Rp42
(dp43
Vlist
p44
(lp45
sbsV_Process__endpaths
p46
g0
(g38
g39
(dp47
tp48
Rp49
(dp50
g44
(lp51
sbsV_Process__finalpaths
p52
g0
(g38
g39
(dp53
tp54
Rp55
(dp56
g44
(lp57
sbsV_Process__sequences
p58
(dp59
sV_Process__tasks
p60
(dp61
sV_Process__conditionaltasks
p62
(dp63
sV_Process__services
p64
(dp65
VMessageLogger
p66
g0
(cFWCore.ParameterSet.Modules
Service
p67
g2
Ntp68
Rp69
(dp70
g19
g66
sg21
(lp71
VsuppressWarning
p72
aVsuppressFwkInfo
p73
aVsuppressInfo
p74
aVsuppressDebug
p75
aVdebugModules
p76
aVcout
p77
aVdefault
p78
aVcerr
p79
aVfiles
p80
asg23
I00
sg24
g0
(cFWCore.ParameterSet.Types
_OptionalParameter
p81
g2
Ntp82
Rp83
(dp84
g23
I00
sV_ParameterTypeBase__isTracked
p85
I00
sg25
I00
sV_ProxyParameter__type
p86
g0
(cFWCore.ParameterSet.Types
_PSetTemplate
p87
g2
Ntp88
Rp89
(dp90
V_pset
p91
g0
(cFWCore.ParameterSet.Types
PSet
p92
g2
Ntp93
Rp94
(dp95
g23
I00
sg85
I01
sg25
I00
sg21
(lp96
VreportEvery
p97
aVlimit
p98
aVtimespan
p99
asg24
Nsg97
g0
(cFWCore.ParameterSet.Types
int32
p100
g2
Ntp101
Rp102
(dp103
g23
I00
sg85
I00
sg25
I00
sV_value
p104
I1
sbsg98
g0
(g81
g2
Ntp105
Rp106
(dp107
g23
I00
sg85
I00
sg25
I00
sg86
g100
sV_ProxyParameter__value
p108
Nsbsg99
g0
(g81
g2
Ntp109
Rp110
(dp111
g23
I00
sg85
I00
sg25
I00
sg86
g100
sg108
NsbsbsV_PSetTemplate__value
p112
Nsbsg108
Nsbsg72
g0
(cFWCore.ParameterSet.Types
vstring
p113
c__builtin__
list
p114
(lp115
tp116
Rp117
(dp118
g23
I00
sg85
I00
sg25
I00
sV_nPerLine
p119
I1
sbsg25
I00
sg73
g0
(g113
g114
(lp120
tp121
Rp122
(dp123
g23
I00
sg85
I00
sg25
I00
sg119
I1
sbsg74
g0
(g113
g114
(lp124
tp125
Rp126
(dp127
g23
I00
sg85
I00
sg25
I00
sg119
I1
sbsg75
g0
(g113
g114
(lp128
tp129
Rp130
(dp131
g23
I00
sg85
I00
sg25
I00
sg119
I1
sbsg76
g0
(g113
g114
(lp132
tp133
Rp134
(dp135
g23
I00
sg85
I00
sg25
I00
sg119
I1
sbsg77
g0
(g92
g2
Ntp136
Rp137
(dp138
g23
I00
sg85
I00
sg25
I00
sg21
(lp139
VnoLineBreaks
p140
aVnoTimeStamps
p141
aVlineLength
p142
aVthreshold
p143
aVstatisticsThreshold
p144
aVenableStatistics
p145
aVresetStatistics
p146
aVenable
p147
asg24
g83
sg140
g0
(g81
g2
Ntp148
Rp149
(dp150
g23
I00
sg85
I00
sg25
I00
sg86
cFWCore.ParameterSet.Types
bool
p151
sg108
Nsbsg141
g0
(g81
g2
Ntp152
Rp153
(dp154
g23
I00
sg85
I00
sg25
I00
sg86
g151
sg108
Nsbsg142
g0
(g81
g2
Ntp155
Rp156
(dp157
g23
I00
sg85
I00
sg25
I00
sg86
g100
sg108
Nsbsg143
g0
(g81
g2
Ntp158
Rp159
(dp160
g23
I00
sg85
I00
sg25
I00
sg86
cFWCore.ParameterSet.Types
string
p161
sg108
Nsbsg144
g0
(g81
g2
Ntp162
Rp163
(dp164
g23
I00
sg85
I00
sg25
I00
sg86
g161
sg108
Nsbsg145
g0
(g151
g2
Ntp165
Rp166
(dp167
g23
I00
sg85
I00
sg25
I00
sg104
I00
sbsg146
g0
(g151
g2
Ntp168
Rp169
(dp170
g23
I00
sg85
I00
sg25
I00
sg104
I00
sbsg147
g0
(g151
g2
Ntp171
Rp172
(dp173
g23
I00
sg85
I00
sg25
I00
sg104
I00
sbsbsg78
g0
(g92
g2
Ntp174
Rp175
(dp176
g23
I00
sg85
I00
sg25
I00
sg21
(lp177
g97
ag98
ag99
ag140
ag141
ag142
ag143
ag144
asg24
g83
sg97
g0
(g100
g2
Ntp178
Rp179
(dp180
g23
I00
sg85
I00
sg25
I00
sg104
I1
sbsg98
g0
(g81
g2
Ntp181
Rp182
(dp183
g23
I00
sg85
I00
sg25
I00
sg86
g100
sg108
Nsbsg99
g0
(g81
g2
Ntp184
Rp185
(dp186
g23
I00
sg85
I00
sg25
I00
sg86
g100
sg108
Nsbsg140
g0
(g151
g2
Ntp187
Rp188
(dp189
g23
I00
sg85
I00
sg25
I00
sg104
I00
sbsg141
g0
(g151
g2
Ntp190
Rp191
(dp192
g23
I00
sg85
I00
sg25
I00
sg104
I00
sbsg142
g0
(g100
g2
Ntp193
Rp194
(dp195
g23
I00
sg85
I00
sg25
I00
sg104
I80
sbsg143
g0
(g161
g2
Ntp196
Rp197
(dp198
g23
I00
sg85
I00
sg25
I00
sg104
VINFO
p199
sbsg144
g0
(g161
g2
Ntp200
Rp201
(dp202
g23
I00
sg85
I00
sg25
I00
sg104
g199
sbsbsg79
g0
(g92
g2
Ntp203
Rp204
(dp205
g23
I00
sg85
I00
sg25
I00
sg21
(lp206
g140
ag141
ag142
ag143
ag144
ag147
ag145
ag146
ag199
aVFwkReport
p207
ag78
aVRoot_NoDictionary
p208
aVFwkSummary
p209
asg24
g83
sg140
g0
(g81
g2
Ntp210
Rp211
(dp212
g23
I00
sg85
I00
sg25
I00
sg86
g151
sg108
Nsbsg141
g0
(g151
g2
Ntp213
Rp214
(dp215
g23
I00
sg85
I00
sg25
I00
sg104
I00
sbsg142
g0
(g81
g2
Ntp216
Rp217
(dp218
g23
I00
sg85
I00
sg25
I00
sg86
g100
sg108
Nsbsg143
g0
(g161
g2
Ntp219
Rp220
(dp221
g23
I00
sg85
I00
sg25
I00
sg104
g199
sbsg144
g0
(g161
g2
Ntp222
Rp223
(dp224
g23
I00
sg85
I00
sg25
I00
sg104
VWARNING
p225
sbsg147
g0
(g151
g2
Ntp226
Rp227
(dp228
g23
I00
sg85
I00
sg25
I00
sg104
I01
sbsg145
g0
(g151
g2
Ntp229
Rp230
(dp231
g23
I00
sg85
I00
sg25
I00
sg104
I00
sbsg146
g0
(g151
g2
Ntp232
Rp233
(dp234
g23
I00
sg85
I00
sg25
I00
sg104
I00
sbsg199
g0
(g92
g2
Ntp235
Rp236
(dp237
g23
I00
sg85
I00
sg25
I00
sg21
(lp238
g98
asg24
Nsg98
g0
(g100
g2
Ntp239
Rp240
(dp241
g23
I00
sg85
I00
sg25
I00
sg104
I0
sbsbsg207
g0
(g92
g2
Ntp242
Rp243
(dp244
g23
I00
sg85
I00
sg25
I00
sg21
(lp245
g97
ag98
asg24
Nsg97
g0
(g100
g2
Ntp246
Rp247
(dp248
g23
I00
sg85
I00
sg25
I00
sg104
I1
sbsg98
g0
(g100
g2
Ntp249
Rp250
(dp251
g23
I00
sg85
I00
sg25
I00
sg104
I10000000
sbsbsg78
g0
(g92
g2
Ntp252
Rp253
(dp254
g23
I00
sg85
I00
sg25
I00
sg21
(lp255
g98
asg24
Nsg98
g0
(g100
g2
Ntp256
Rp257
(dp258
g23
I00
sg85
I00
sg25
I00
sg104
I10000000
sbsbsg208
g0
(g92
g2
Ntp259
Rp260
(dp261
g23
I00
sg85
I00
sg25
I00
sg21
(lp262
g98
asg24
Nsg98
g0
(g100
g2
Ntp263
Rp264
(dp265
g23
I00
sg85
I00
sg25
I00
sg104
I0
sbsbsg209
g0
(g92
g2
Ntp266
Rp267
(dp268
g23
I00
sg85
I00
sg25
I00
sg21
(lp269
g97
ag98
asg24
Nsg97
g0
(g100
g2
Ntp270
Rp271
(dp272
g23
I00
sg85
I00
sg25
I00
sg104
I1
sbsg98
g0
(g100
g2
Ntp273
Rp274
(dp275
g23
I00
sg85
I00
sg25
I00
sg104
I10000000
sbsbsbsg80
g0
(g92
g2
Ntp276
Rp277
(dp278
g23
I00
sg85
I00
sg25
I00
sg21
(lp279
sg24
g0
(g81
g2
Ntp280
Rp281
(dp282
g23
I00
sg85
I00
sg25
I00
sg86
g0
(g87
g2
Ntp283
Rp284
(dp285
g91
g0
(g92
g2
Ntp286
Rp287
(dp288
g23
I00
sg85
I01
sg25
I00
sg21
(lp289
g140
ag141
ag142
ag143
ag144
ag145
ag146
aVfilename
p290
aVextension
p291
aVoutput
p292
asg24
g83
sg140
g0
(g81
g2
Ntp293
Rp294
(dp295
g23
I00
sg85
I00
sg25
I00
sg86
g151
sg108
Nsbsg141
g0
(g81
g2
Ntp296
Rp297
(dp298
g23
I00
sg85
I00
sg25
I00
sg86
g151
sg108
Nsbsg142
g0
(g81
g2
Ntp299
Rp300
(dp301
g23
I00
sg85
I00
sg25
I00
sg86
g100
sg108
Nsbsg143
g0
(g81
g2
Ntp302
Rp303
(dp304
g23
I00
sg85
I00
sg25
I00
sg86
g161
sg108
Nsbsg144
g0
(g81
g2
Ntp305
Rp306
(dp307
g23
I00
sg85
I00
sg25
I00
sg86
g161
sg108
Nsbsg145
g0
(g151
g2
Ntp308
Rp309
(dp310
g23
I00
sg85
I00
sg25
I00
sg104
I00
sbsg146
g0
(g151
g2
Ntp311
Rp312
(dp313
g23
I00
sg85
I00
sg25
I00
sg104
I00
sbsg290
g0
(g81
g2
Ntp314
Rp315
(dp316
g23
I00
sg85
I00
sg25
I00
sg86
g161
sg108
Nsbsg291
g0
(g81
g2
Ntp317
Rp318
(dp319
g23
I00
sg85
I00
sg25
I00
sg86
g161
sg108
Nsbsg292
g0
(g81
g2
Ntp320
Rp321
(dp322
g23
I00
sg85
I00
sg25
I00
sg86
g161
sg108
Nsbsbsg112
Nsbsg108
Nsbsbsg26
g27
sg28
I13
sV_inProcess
p323
I01
sbssV_Process__essources
p324
(dp325
sV_Process__esproducers
p326
(dp327
sV_Process__esprefers
p328
(dp329
sV_Process__aliases
p330
(dp331
sV_Process__psets
p332
(dp333
Voptions
p334
g0
(g92
g2
Ntp335
Rp336
(dp337
g23
I00
sg85
I00
sg25
I00
sg21
(lp338
VnumberOfThreads
p339
aVnumberOfStreams
p340
aVnumberOfConcurrentRuns
p341
aVnumberOfConcurrentLuminosityBlocks
p342
aVeventSetup
p343
aVaccelerators
p344
aVwantSummary
p345
aVfileMode
p346
aVforceEventSetupCacheClearOnNewRun
p347
aVthrowIfIllegalParameter
p348
aVprintDependencies
p349
aVdeleteNonConsumedUnscheduledModules
p350
aVsizeOfStackForThreadsInKB
p351
aVRethrow
p352
aVTryToContinue
p353
aVIgnoreCompletely
p354
aVmodulesToCallForTryToContinue
p355
aVcanDeleteEarly
p356
aVholdsReferencesToDeleteEarly
p357
aVmodulesToIgnoreForDeleteEarly
p358
aVdumpOptions
p359
aVallowUnscheduled
p360
aVemptyRunLumiMode
p361
aVmakeTriggerResults
p362
asg24
Nsg339
g0
(cFWCore.ParameterSet.Types
uint32
p363
g2
Ntp364
Rp365
(dp366
g23
I00
sg85
I00
sg25
I00
sg104
I1
sbsg340
g0
(g363
g2
Ntp367
Rp368
(dp369
g23
I00
sg85
I00
sg25
I00
sg104
I0
sbsg341
g0
(g363
g2
Ntp370
Rp371
(dp372
g23
I00
sg85
I00
sg25
I00
sg104
I1
sbsg342
g0
(g363
g2
Ntp373
Rp374
(dp375
g23
I00
sg85
I00
sg25
I00
sg104
I0
sbsg343
g0
(g92
g2
Ntp376
Rp377
(dp378
g23
I00
sg85
I00
sg25
I00
sg21
(lp379
VnumberOfConcurrentIOVs
p380
aVforceNumberOfConcurrentIOVs
p381
asg24
Nsg380
g0
(g363
g2
Ntp382
Rp383
(dp384
g23
I00
sg85
I00
sg25
I00
sg104
I0
sbsg381
g0
(g92
g2
Ntp385
Rp386
(dp387
g23
I00
sg85
I00
sg25
I00
sg21
(lp388
sg24
g0
(cFWCore.ParameterSet.Types
_RequiredParameter
p389
g2
Ntp390
Rp391
(dp392
g23
I00
sg85
I00
sg25
I00
sg86
g363
sg108
Nsbsbsbsg344
g0
(g113
g114
(lp393
V*
p394
atp395
Rp396
(dp397
g23
I00
sg85
I00
sg25
I00
sg119
I1
sbsg345
g0
(g151
g2
Ntp398
Rp399
(dp400
g23
I00
sg85
I00
sg25
I00
sg104
I00
sbsg346
g0
(g161
g2
Ntp401
Rp402
(dp403
g23
I00
sg85
I00
sg25
I00
sg104
VFULLMERGE
p404
sbsg347
g0
(g151
g2
Ntp405
Rp406
(dp407
g23
I00
sg85
I00
sg25
I00
sg104
I00
sbsg348
g0
(g151
g2
Ntp408
Rp409
(dp410
g23
I00
sg85
I00
sg25
I00
sg104
I01
sbsg349
g0
(g151
g2
Ntp411
Rp412
(dp413
g23
I00
sg85
I00
sg25
I00
sg104
I00
sbsg350
g0
(g151
g2
Ntp414
Rp415
(dp416
g23
I00
sg85
I00
sg25
I00
sg104
I01
sbsg351
g0
(g81
g2
Ntp417
Rp418
(dp419
g23
I00
sg85
I00
sg25
I00
sg86
g363
sg108
Nsbsg352
g0
(g113
g114
(lp420
tp421
Rp422
(dp423
g23
I00
sg85
I00
sg25
I00
sg119
I1
sbsg353
g0
(g113
g114
(lp424
tp425
Rp426
(dp427
g23
I00
sg85
I00
sg25
I00
sg119
I1
sbsg354
g0
(g113
g114
(lp428
tp429
Rp430
(dp431
g23
I00
sg85
I00
sg25
I00
sg119
I1
sbsg355
g0
(g113
g114
(lp432
tp433
Rp434
(dp435
g23
I00
sg85
I00
sg25
I00
sg119
I1
sbsg356
g0
(g113
g114
(lp436
tp437
Rp438
(dp439
g23
I00
sg85
I00
sg25
I00
sg119
I1
sbsg357
g0
(cFWCore.ParameterSet.Types
VPSet
p440
g114
(lp441
tp442
Rp443
(dp444
g23
I00
sg85
I00
sg25
I00
sg119
I1
sbsg358
g0
(g113
g114
(lp445
tp446
Rp447
(dp448
g23
I00
sg85
I00
sg25
I00
sg119
I1
sbsg359
g0
(g151
g2
Ntp449
Rp450
(dp451
g23
I00
sg85
I00
sg25
I00
sg104
I00
sbsg360
g0
(cFWCore.ParameterSet.Types
_ObsoleteParameter
p452
g2
Ntp453
Rp454
(dp455
g23
I00
sg85
I00
sg25
I00
sg86
g151
sg108
Nsbsg361
g0
(g452
g2
Ntp456
Rp457
(dp458
g23
I00
sg85
I00
sg25
I00
sg86
g161
sg108
Nsbsg362
g0
(g452
g2
Ntp459
Rp460
(dp461
g23
I00
sg85
I00
sg25
I00
sg86
g151
sg108
NsbsV_Labelable__label
p462
g334
sbsVmaxLuminosityBlocks
p463
g0
(g92
g2
Ntp464
Rp465
(dp466
g23
I00
sg85
I00
sg25
I00
sg21
(lp467
Vinput
p468
asg24
Nsg468
g0
(g100
g2
Ntp469
Rp470
(dp471
g23
I00
sg85
I00
sg25
I00
sg104
I-1
sbsg462
g463
sbsVmaxEvents
p472
g0
(g92
g2
Ntp473
Rp474
(dp475
g23
I00
sg85
I00
sg25
I01
sg21
(lp476
g468
ag292
asg24
Nsg468
g0
(g81
g2
Ntp477
Rp478
(dp479
g23
I00
sg85
I00
sg25
I00
sg86
g100
sg108
g0
(g100
g2
Ntp480
Rp481
(dp482
g23
I00
sg85
I00
sg25
I00
sg104
I1
sbsbsg292
g0
(g81
g2
Ntp483
Rp484
(dp485
g23
I00
sg85
I00
sg25
I00
sg86
g0
(cFWCore.ParameterSet.Types
_AllowedParameterTypes
p486
g2
Ntp487
Rp488
(dp489
V_AllowedParameterTypes__types
p490
(g100
g92
tp491
sV_default
p492
NsV__name__
p493
Vallowed(cms.int32,cms.PSet)
p494
sbsg108
Nsbsg462
g472
sbssV_Process__vpsets
p495
(dp496
sV_cloneToObjectDict
p497
(dp498
L140470213415216L
g336
sL140470216249200L
g0
(g92
g2
Ntp499
Rp500
(dp501
g23
I00
sg85
I00
sg25
I00
sg21
(lp502
g468
ag292
asg24
Nsg468
g0
(g81
g2
Ntp503
Rp504
(dp505
g23
I00
sg85
I00
sg25
I00
sg86
g100
sg108
Nsbsg292
g0
(g81
g2
Ntp506
Rp507
(dp508
g23
I00
sg85
I00
sg25
I00
sg86
g0
(g486
g2
Ntp509
Rp510
(dp511
g490
(g100
g92
tp512
sg492
Nsg493
Vallowed(cms.int32,cms.PSet)
p513
sbsg108
Nsbsg462
NsbsL140470216248720L
g465
sL140470216245360L
g474
ssV_Process__InExtendCall
p514
I00
sV_Process__partialschedules
p515
(dp516
sV_Process__isStrict
p517
I00
sV_Process__modifiers
p518
(tsV_Process__accelerators
p519
(dp520
sg334
g336
sg463
g465
sg66
g69
sVsource
p521
g17
sg20
g17
sg472
g474
sb.