(dp0
VServer
p1
Vcmsweb.cern.ch
p2
sVPort
p3
V
p4
sVRequestName
p5
V250217_222810:castaned_crab_NanoAOD_Reduction
p6
sVvoRole
p7
VNULL
p8
sVvoGroup
p9
g4
sVinstance
p10
Vprod
p11
sVOriginalConfig
p12
ccopy_reg
_reconstructor
p13
(cWMCore.Configuration
Configuration
p14
c__builtin__
object
p15
Ntp16
Rp17
(dp18
V_internal_sections
p19
(lp20
VGeneral
p21
aVJobType
p22
aVData
p23
aVSite
p24
aVUser
p25
aVDebug
p26
asg21
g13
(cWMCore.Configuration
ConfigSection
p27
g15
Ntp28
Rp29
(dp30
V_internal_documentation
p31
g4
sV_internal_name
p32
g21
sV_internal_settings
p33
c__builtin__
set
p34
((lp35
VtransferLogs
p36
aVtransferOutputs
p37
aVworkArea
p38
aVrequestName
p39
atp40
Rp41
sV_internal_docstrings
p42
(dp43
sV_internal_children
p44
g34
((lp45
tp46
Rp47
sV_internal_parent_ref
p48
NsV_internal_skipChecks
p49
I00
sg39
VNanoAOD_Reduction
p50
sg38
Vcrab_projects
p51
sg37
I01
sg36
I01
sbsg22
g13
(g27
g15
Ntp52
Rp53
(dp54
g31
g4
sg32
g22
sg33
g34
((lp55
VpsetName
p56
aVscriptExe
p57
aVinputFiles
p58
aVoutputFiles
p59
aVpluginName
p60
atp61
Rp62
sg42
(dp63
sg44
g34
((lp64
tp65
Rp66
sg48
Nsg49
I00
sg60
VAnalysis
p67
sg56
VPSet.py
p68
sg57
Vreduce_nanoaod.sh
p69
sg58
(lp70
Vreduce_nanoaod.py
p71
ag69
ag68
asg59
(lp72
Voutput.root
p73
asbsg23
g13
(g27
g15
Ntp74
Rp75
(dp76
g31
g4
sg32
g23
sg33
g34
((lp77
VoutLFNDirBase
p78
aVunitsPerJob
p79
aVsplitting
p80
aVinputDataset
p81
aVpublication
p82
atp83
Rp84
sg42
(dp85
sg44
g34
((lp86
tp87
Rp88
sg48
Nsg49
I00
sg81
V/WprimeToWZToWlepZlep_narrow_M1000_TuneCP5_13TeV-madgraph-pythia8/RunIIAutumn18NanoAODv7-Nano02Apr2020_102X_upgrade2018_realistic_v21-v1/NANOAODSIM
p89
sg80
VFileBased
p90
sg79
I1
sg78
V/store/user/castaned/NanoAOD_Reduction/
p91
sg82
I00
sbsg24
g13
(g27
g15
Ntp92
Rp93
(dp94
g31
g4
sg32
g24
sg33
g34
((lp95
VstorageSite
p96
atp97
Rp98
sg42
(dp99
sg44
g34
((lp100
tp101
Rp102
sg48
Nsg49
I00
sg96
VT3_CH_CERNBOX
p103
sbsg25
g13
(g27
g15
Ntp104
Rp105
(dp106
g31
g4
sg32
g25
sg33
g34
((lp107
tp108
Rp109
sg42
(dp110
sg44
g34
((lp111
tp112
Rp113
sg48
Nsg49
I00
sbsg26
g13
(g27
g15
Ntp114
Rp115
(dp116
g31
g4
sg32
g26
sg33
g34
((lp117
tp118
Rp119
sg42
(dp120
sg44
g34
((lp121
tp122
Rp123
sg48
Nsg49
I00
sbsbs.